; Function Attrs: mustprogress nounwind uwtable
define hidden void @_ZN3smt26theory_lemma_justificationD2Ev(ptr noundef nonnull align 8 captures(none) dereferenceable(40) initializes((0, 8)) %0) unnamed_addr #8 align 2 personality ptr @__gxx_personality_v0 {
  store ptr getelementptr inbounds nuw inrange(-16, 72) (i8, ptr @_ZTVN3smt26theory_lemma_justificationE, i64 16), ptr %0, align 8, !tbaa !3
  %2 = getelementptr inbounds nuw i8, ptr %0, i64 32
  %3 = load ptr, ptr %2, align 8, !tbaa !703
  %4 = icmp eq ptr %3, null
  br i1 %4, label %_Z13dealloc_svectIP4exprEvPT_.exit, label %5

5:                                                ; preds = %1
  invoke void @_ZN6memory10deallocateEPv(ptr noundef nonnull %3)
          to label %_Z13dealloc_svectIP4exprEvPT_.exit unwind label %17

_Z13dealloc_svectIP4exprEvPT_.exit:               ; preds = %1, %5
  %6 = getelementptr inbounds nuw i8, ptr %0, i64 16
  %7 = load ptr, ptr %6, align 8, !tbaa !218
  %.not.i.i = icmp eq ptr %7, null
  br i1 %.not.i.i, label %_ZN6vectorI9parameterLb1EjED2Ev.exit, label %_ZNK6vectorI9parameterLb1EjE4sizeEv.exit.i.i.i

_ZNK6vectorI9parameterLb1EjE4sizeEv.exit.i.i.i:   ; preds = %_Z13dealloc_svectIP4exprEvPT_.exit
  %8 = getelementptr inbounds i8, ptr %7, i64 -4
  %9 = load i32, ptr %8, align 4, !tbaa !29
  %.not5.i.i.i.i.i.i = icmp eq i32 %9, 0
  br i1 %.not5.i.i.i.i.i.i, label %_ZN6vectorI9parameterLb1EjE16destroy_elementsEv.exit.i.i, label %.lr.ph.i.i.i.i.i.i

.lr.ph.i.i.i.i.i.i:                               ; preds = %_ZNK6vectorI9parameterLb1EjE4sizeEv.exit.i.i.i, %.lr.ph.i.i.i.i.i.i
  %.07.i.i.i.i.i.i = phi i32 [ %11, %.lr.ph.i.i.i.i.i.i ], [ %9, %_ZNK6vectorI9parameterLb1EjE4sizeEv.exit.i.i.i ]
  %.046.i.i.i.i.i.i = phi ptr [ %10, %.lr.ph.i.i.i.i.i.i ], [ %7, %_ZNK6vectorI9parameterLb1EjE4sizeEv.exit.i.i.i ]
  tail call void @_ZN9parameterD1Ev(ptr noundef nonnull align 8 dereferenceable(16) %.046.i.i.i.i.i.i) #22
  %10 = getelementptr inbounds nuw i8, ptr %.046.i.i.i.i.i.i, i64 16
  %11 = add i32 %.07.i.i.i.i.i.i, -1
  %.not.i.i.i.i.i.i = icmp eq i32 %11, 0
  br i1 %.not.i.i.i.i.i.i, label %_ZN6vectorI9parameterLb1EjE16destroy_elementsEv.exit.loopexit.i.i, label %.lr.ph.i.i.i.i.i.i, !llvm.loop !705

_ZN6vectorI9parameterLb1EjE16destroy_elementsEv.exit.loopexit.i.i: ; preds = %.lr.ph.i.i.i.i.i.i
  %.pre.i.i = load ptr, ptr %6, align 8, !tbaa !218
  br label %_ZN6vectorI9parameterLb1EjE16destroy_elementsEv.exit.i.i

_ZN6vectorI9parameterLb1EjE16destroy_elementsEv.exit.i.i: ; preds = %_ZN6vectorI9parameterLb1EjE16destroy_elementsEv.exit.loopexit.i.i, %_ZNK6vectorI9parameterLb1EjE4sizeEv.exit.i.i.i
  %12 = phi ptr [ %.pre.i.i, %_ZN6vectorI9parameterLb1EjE16destroy_elementsEv.exit.loopexit.i.i ], [ %7, %_ZNK6vectorI9parameterLb1EjE4sizeEv.exit.i.i.i ]
  %13 = getelementptr inbounds i8, ptr %12, i64 -8
  invoke void @_ZN6memory10deallocateEPv(ptr noundef nonnull %13)
          to label %_ZN6vectorI9parameterLb1EjED2Ev.exit unwind label %14

14:                                               ; preds = %_ZN6vectorI9parameterLb1EjE16destroy_elementsEv.exit.i.i
  %15 = landingpad { ptr, i32 }
          catch ptr null
  %16 = extractvalue { ptr, i32 } %15, 0
  tail call void @__clang_call_terminate(ptr %16) #23
  unreachable

_ZN6vectorI9parameterLb1EjED2Ev.exit:             ; preds = %_Z13dealloc_svectIP4exprEvPT_.exit, %_ZN6vectorI9parameterLb1EjE16destroy_elementsEv.exit.i.i
  ret void

17:                                               ; preds = %5
  %18 = landingpad { ptr, i32 }
          catch ptr null
  %19 = extractvalue { ptr, i32 } %18, 0
  tail call void @__clang_call_terminate(ptr %19) #23
  unreachable
}